; Function Attrs: nounwind sspstrong uwtable
define dso_local void @tcg_gen_mov_i128(ptr noundef %0, ptr noundef %1) local_unnamed_addr #2 {
  %.not = icmp eq ptr %0, %1
  br i1 %.not, label %tcg_gen_mov_i64.exit7, label %tcg_gen_mov_i64.exit

tcg_gen_mov_i64.exit:                             ; preds = %2
  %3 = tail call align 8 ptr @llvm.threadlocal.address.p0(ptr align 8 @tcg_ctx)
  %4 = load ptr, ptr %3, align 8
  %5 = ptrtoint ptr %0 to i64
  %6 = getelementptr inbounds nuw i8, ptr %4, i64 %5
  %7 = ptrtoint ptr %6 to i64
  %8 = ptrtoint ptr %1 to i64
  %9 = getelementptr inbounds nuw i8, ptr %4, i64 %8
  %10 = ptrtoint ptr %9 to i64
  %11 = tail call ptr @tcg_gen_op2(i32 noundef 63, i32 noundef 1, i64 noundef %7, i64 noundef %10)
  %12 = load ptr, ptr %3, align 8
  %13 = getelementptr inbounds nuw i8, ptr %12, i64 %8
  %14 = getelementptr inbounds nuw i8, ptr %12, i64 %5
  %15 = getelementptr inbounds nuw i8, ptr %13, i64 56
  %16 = getelementptr inbounds nuw i8, ptr %14, i64 56
  %17 = ptrtoint ptr %15 to i64
  %18 = ptrtoint ptr %16 to i64
  %19 = tail call ptr @tcg_gen_op2(i32 noundef 63, i32 noundef 1, i64 noundef %18, i64 noundef %17)
  br label %tcg_gen_mov_i64.exit7

tcg_gen_mov_i64.exit7:                            ; preds = %tcg_gen_mov_i64.exit, %2
  ret void
}